; ModuleID = '1318.c'
source_filename = "1318.c"
target datalayout = "e-m:e-p270:32:32-p271:32:32-p272:64:64-i64:64-f80:128-n8:16:32:64-S128"
target triple = "x86_64-pc-linux-gnu"

%struct.stu = type { [20 x i8], i32, i32, i8, i8, i32, i32 }

@.str = private unnamed_addr constant [3 x i8] c"%d\00", align 1
@.str.1 = private unnamed_addr constant [17 x i8] c"%s%d %d %c %c %d\00", align 1
@.str.2 = private unnamed_addr constant [10 x i8] c"%s\0A%d\0A%d\0A\00", align 1

; Function Attrs: noinline nounwind uwtable
define dso_local void @main() #0 {
  %1 = alloca [100 x %struct.stu], align 16
  %2 = alloca i32, align 4
  %3 = alloca i32, align 4
  %4 = alloca i32, align 4
  %5 = alloca i32, align 4
  %6 = alloca i32, align 4
  %7 = alloca i32, align 4
  %8 = alloca %struct.stu, align 4
  store i32 0, i32* %5, align 4
  store i32 0, i32* %6, align 4
  store i32 0, i32* %7, align 4
  %9 = call i32 (i8*, ...) @__isoc99_scanf(i8* getelementptr inbounds ([3 x i8], [3 x i8]* @.str, i64 0, i64 0), i32* %2)
  store i32 0, i32* %3, align 4
  br label %10

10:                                               ; preds = %106, %0
  %11 = load i32, i32* %3, align 4
  %12 = load i32, i32* %2, align 4
  %13 = icmp slt i32 %11, %12
  br i1 %13, label %14, label %109

14:                                               ; preds = %10
  %15 = load i32, i32* %3, align 4
  %16 = sext i32 %15 to i64
  %17 = getelementptr inbounds [100 x %struct.stu], [100 x %struct.stu]* %1, i64 0, i64 %16
  %18 = getelementptr inbounds %struct.stu, %struct.stu* %17, i32 0, i32 0
  %19 = load i32, i32* %3, align 4
  %20 = sext i32 %19 to i64
  %21 = getelementptr inbounds [100 x %struct.stu], [100 x %struct.stu]* %1, i64 0, i64 %20
  %22 = getelementptr inbounds %struct.stu, %struct.stu* %21, i32 0, i32 1
  %23 = load i32, i32* %3, align 4
  %24 = sext i32 %23 to i64
  %25 = getelementptr inbounds [100 x %struct.stu], [100 x %struct.stu]* %1, i64 0, i64 %24
  %26 = getelementptr inbounds %struct.stu, %struct.stu* %25, i32 0, i32 2
  %27 = load i32, i32* %3, align 4
  %28 = sext i32 %27 to i64
  %29 = getelementptr inbounds [100 x %struct.stu], [100 x %struct.stu]* %1, i64 0, i64 %28
  %30 = getelementptr inbounds %struct.stu, %struct.stu* %29, i32 0, i32 3
  %31 = load i32, i32* %3, align 4
  %32 = sext i32 %31 to i64
  %33 = getelementptr inbounds [100 x %struct.stu], [100 x %struct.stu]* %1, i64 0, i64 %32
  %34 = getelementptr inbounds %struct.stu, %struct.stu* %33, i32 0, i32 4
  %35 = load i32, i32* %3, align 4
  %36 = sext i32 %35 to i64
  %37 = getelementptr inbounds [100 x %struct.stu], [100 x %struct.stu]* %1, i64 0, i64 %36
  %38 = getelementptr inbounds %struct.stu, %struct.stu* %37, i32 0, i32 5
  %39 = call i32 (i8*, ...) @__isoc99_scanf(i8* getelementptr inbounds ([17 x i8], [17 x i8]* @.str.1, i64 0, i64 0), [20 x i8]* %18, i32* %22, i32* %26, i8* %30, i8* %34, i32* %38)
  %40 = load i32, i32* %3, align 4
  %41 = sext i32 %40 to i64
  %42 = getelementptr inbounds [100 x %struct.stu], [100 x %struct.stu]* %1, i64 0, i64 %41
  %43 = getelementptr inbounds %struct.stu, %struct.stu* %42, i32 0, i32 6
  store i32 0, i32* %43, align 4
  %44 = load i32, i32* %3, align 4
  %45 = sext i32 %44 to i64
  %46 = getelementptr inbounds [100 x %struct.stu], [100 x %struct.stu]* %1, i64 0, i64 %45
  %47 = getelementptr inbounds %struct.stu, %struct.stu* %46, i32 0, i32 1
  %48 = load i32, i32* %47, align 4
  %49 = icmp sgt i32 %48, 80
  br i1 %49, label %50, label %60

50:                                               ; preds = %14
  %51 = load i32, i32* %3, align 4
  %52 = sext i32 %51 to i64
  %53 = getelementptr inbounds [100 x %struct.stu], [100 x %struct.stu]* %1, i64 0, i64 %52
  %54 = getelementptr inbounds %struct.stu, %struct.stu* %53, i32 0, i32 5
  %55 = load i32, i32* %54, align 8
  %56 = icmp sge i32 %55, 1
  br i1 %56, label %57, label %60

57:                                               ; preds = %50
  %58 = load i32, i32* %7, align 4
  %59 = add nsw i32 %58, 8000
  store i32 %59, i32* %7, align 4
  br label %60

60:                                               ; preds = %57, %50, %14
  %61 = getelementptr inbounds %struct.stu, %struct.stu* %8, i32 0, i32 1
  %62 = load i32, i32* %61, align 4
  %63 = icmp sgt i32 %62, 85
  br i1 %63, label %64, label %71

64:                                               ; preds = %60
  %65 = getelementptr inbounds %struct.stu, %struct.stu* %8, i32 0, i32 2
  %66 = load i32, i32* %65, align 4
  %67 = icmp sgt i32 %66, 80
  br i1 %67, label %68, label %71

68:                                               ; preds = %64
  %69 = load i32, i32* %7, align 4
  %70 = add nsw i32 %69, 4000
  store i32 %70, i32* %7, align 4
  br label %71

71:                                               ; preds = %68, %64, %60
  %72 = getelementptr inbounds %struct.stu, %struct.stu* %8, i32 0, i32 1
  %73 = load i32, i32* %72, align 4
  %74 = icmp sgt i32 %73, 90
  br i1 %74, label %75, label %78

75:                                               ; preds = %71
  %76 = load i32, i32* %7, align 4
  %77 = add nsw i32 %76, 2000
  store i32 %77, i32* %7, align 4
  br label %78

78:                                               ; preds = %75, %71
  %79 = getelementptr inbounds %struct.stu, %struct.stu* %8, i32 0, i32 1
  %80 = load i32, i32* %79, align 4
  %81 = icmp sgt i32 %80, 85
  br i1 %81, label %82, label %90

82:                                               ; preds = %78
  %83 = getelementptr inbounds %struct.stu, %struct.stu* %8, i32 0, i32 4
  %84 = load i8, i8* %83, align 1
  %85 = sext i8 %84 to i32
  %86 = icmp eq i32 %85, 89
  br i1 %86, label %87, label %90

87:                                               ; preds = %82
  %88 = load i32, i32* %7, align 4
  %89 = add nsw i32 %88, 1000
  store i32 %89, i32* %7, align 4
  br label %90

90:                                               ; preds = %87, %82, %78
  %91 = getelementptr inbounds %struct.stu, %struct.stu* %8, i32 0, i32 2
  %92 = load i32, i32* %91, align 4
  %93 = icmp sgt i32 %92, 80
  br i1 %93, label %94, label %102

94:                                               ; preds = %90
  %95 = getelementptr inbounds %struct.stu, %struct.stu* %8, i32 0, i32 3
  %96 = load i8, i8* %95, align 4
  %97 = sext i8 %96 to i32
  %98 = icmp eq i32 %97, 89
  br i1 %98, label %99, label %102

99:                                               ; preds = %94
  %100 = load i32, i32* %7, align 4
  %101 = add nsw i32 %100, 850
  store i32 %101, i32* %7, align 4
  br label %102

102:                                              ; preds = %99, %94, %90
  %103 = load i32, i32* %5, align 4
  %104 = load i32, i32* %7, align 4
  %105 = add nsw i32 %103, %104
  store i32 %105, i32* %5, align 4
  br label %106

106:                                              ; preds = %102
  %107 = load i32, i32* %3, align 4
  %108 = add nsw i32 %107, 1
  store i32 %108, i32* %3, align 4
  br label %10

109:                                              ; preds = %10
  store i32 0, i32* %3, align 4
  br label %110

110:                                              ; preds = %122, %109
  %111 = load i32, i32* %3, align 4
  %112 = load i32, i32* %2, align 4
  %113 = icmp slt i32 %111, %112
  br i1 %113, label %114, label %125

114:                                              ; preds = %110
  %115 = load i32, i32* %7, align 4
  %116 = load i32, i32* %6, align 4
  %117 = icmp sgt i32 %115, %116
  br i1 %117, label %118, label %121

118:                                              ; preds = %114
  %119 = load i32, i32* %7, align 4
  store i32 %119, i32* %6, align 4
  %120 = load i32, i32* %3, align 4
  store i32 %120, i32* %4, align 4
  br label %121

121:                                              ; preds = %118, %114
  br label %122

122:                                              ; preds = %121
  %123 = load i32, i32* %3, align 4
  %124 = add nsw i32 %123, 1
  store i32 %124, i32* %3, align 4
  br label %110

125:                                              ; preds = %110
  %126 = load i32, i32* %4, align 4
  %127 = sext i32 %126 to i64
  %128 = getelementptr inbounds [100 x %struct.stu], [100 x %struct.stu]* %1, i64 0, i64 %127
  %129 = getelementptr inbounds %struct.stu, %struct.stu* %128, i32 0, i32 0
  %130 = getelementptr inbounds [20 x i8], [20 x i8]* %129, i64 0, i64 0
  %131 = load i32, i32* %4, align 4
  %132 = sext i32 %131 to i64
  %133 = getelementptr inbounds [100 x %struct.stu], [100 x %struct.stu]* %1, i64 0, i64 %132
  %134 = getelementptr inbounds %struct.stu, %struct.stu* %133, i32 0, i32 6
  %135 = load i32, i32* %134, align 4
  %136 = load i32, i32* %5, align 4
  %137 = call i32 (i8*, ...) @printf(i8* getelementptr inbounds ([10 x i8], [10 x i8]* @.str.2, i64 0, i64 0), i8* %130, i32 %135, i32 %136)
  ret void
}

declare dso_local i32 @__isoc99_scanf(i8*, ...) #1

declare dso_local i32 @printf(i8*, ...) #1


!llvm.module.flags = !{!0}
!llvm.ident = !{!1}

!0 = !{i32 1, !"wchar_size", i32 4}
!1 = !{!"clang version 10.0.0-4ubuntu1 "}
